; ModuleID = '28/187.c'
source_filename = "28/187.c"
target datalayout = "e-m:e-p270:32:32-p271:32:32-p272:64:64-i64:64-f80:128-n8:16:32:64-S128"
target triple = "x86_64-pc-linux-gnu"

@.str = private unnamed_addr constant [4 x i8] c"%d,\00", align 1
@.str.1 = private unnamed_addr constant [3 x i8] c"%d\00", align 1

; Function Attrs: noinline nounwind uwtable
define dso_local void @main() #0 {
  %1 = alloca i8, align 1
  %2 = alloca i32, align 4
  %3 = alloca i32, align 4
  store i32 0, i32* %2, align 4
  br label %4

4:                                                ; preds = %23, %0
  %5 = call i32 @getchar()
  %6 = trunc i32 %5 to i8
  store i8 %6, i8* %1, align 1
  %7 = sext i8 %6 to i32
  %8 = icmp ne i32 %7, 10
  br i1 %8, label %9, label %24

9:                                                ; preds = %4
  %10 = load i8, i8* %1, align 1
  %11 = sext i8 %10 to i32
  %12 = icmp ne i32 %11, 32
  br i1 %12, label %13, label %16

13:                                               ; preds = %9
  %14 = load i32, i32* %2, align 4
  %15 = add nsw i32 %14, 1
  store i32 %15, i32* %2, align 4
  br label %23

16:                                               ; preds = %9
  %17 = load i32, i32* %2, align 4
  %18 = icmp sgt i32 %17, 0
  br i1 %18, label %19, label %22

19:                                               ; preds = %16
  %20 = load i32, i32* %2, align 4
  %21 = call i32 (i8*, ...) @printf(i8* getelementptr inbounds ([4 x i8], [4 x i8]* @.str, i64 0, i64 0), i32 %20)
  store i32 0, i32* %2, align 4
  br label %22

22:                                               ; preds = %19, %16
  br label %23

23:                                               ; preds = %22, %13
  br label %4

24:                                               ; preds = %4
  %25 = load i32, i32* %2, align 4
  %26 = call i32 (i8*, ...) @printf(i8* getelementptr inbounds ([3 x i8], [3 x i8]* @.str.1, i64 0, i64 0), i32 %25)
  ret void
}

declare dso_local i32 @getchar() #1

declare dso_local i32 @printf(i8*, ...) #1


!llvm.module.flags = !{!0}
!llvm.ident = !{!1}

!0 = !{i32 1, !"wchar_size", i32 4}
!1 = !{!"clang version 10.0.0-4ubuntu1 "}
